target datalayout = "e-m:e-p270:32:32-p271:32:32-p272:64:64-i64:64-i128:128-f80:128-n8:16:32:64-S128"
target triple = "x86_64-pc-linux-gnu"

%"class.std::basic_ostream" = type { ptr, %"class.std::basic_ios" }
%"class.std::basic_ios" = type { %"class.std::ios_base", ptr, i8, i8, ptr, ptr, ptr, ptr }
%"class.std::ios_base" = type { ptr, i64, i64, i32, i32, i32, ptr, %"struct.std::ios_base::_Words", [8 x %"struct.std::ios_base::_Words"], i32, ptr, %"class.std::locale" }
%"struct.std::ios_base::_Words" = type { ptr, i64 }
%"class.std::locale" = type { ptr }
%"class.nix::RunPager" = type { %"class.nix::Pid", i32 }
%"class.nix::Pid" = type { i32, i8, i32 }

@_ZSt4cout = external global %"class.std::basic_ostream", align 8

; Function Attrs: mustprogress nounwind uwtable
define void @_ZN3nix8RunPagerD2Ev(ptr noundef nonnull align 4 dereferenceable(16) %0) unnamed_addr #2 align 2 personality ptr @__gxx_personality_v0 {
  %2 = alloca ptr, align 8
  %3 = alloca ptr, align 8
  %4 = alloca i32, align 4
  store ptr %0, ptr %2, align 8
  %5 = load ptr, ptr %2, align 8
  %6 = getelementptr inbounds %"class.nix::RunPager", ptr %5, i32 0, i32 0
  %7 = invoke noundef i32 @_ZN3nix3PidcviEv(ptr noundef nonnull align 4 dereferenceable(12) %6)
          to label %8 unwind label %19

8:                                                ; preds = %1
  %9 = icmp ne i32 %7, -1
  br i1 %9, label %10, label %30

10:                                               ; preds = %8
  %11 = invoke noundef nonnull align 8 dereferenceable(8) ptr @_ZNSo5flushEv(ptr noundef nonnull align 8 dereferenceable(8) @_ZSt4cout)
          to label %12 unwind label %19

12:                                               ; preds = %10
  %13 = getelementptr inbounds %"class.nix::RunPager", ptr %5, i32 0, i32 1
  %14 = load i32, ptr %13, align 4
  %15 = call i32 @dup2(i32 noundef %14, i32 noundef 1) #1
  %16 = getelementptr inbounds %"class.nix::RunPager", ptr %5, i32 0, i32 0
  %17 = invoke noundef i32 @_ZN3nix3Pid4waitEv(ptr noundef nonnull align 4 dereferenceable(12) %16)
          to label %18 unwind label %19

18:                                               ; preds = %12
  br label %30

19:                                               ; preds = %12, %10, %1
  %20 = landingpad { ptr, i32 }
          catch ptr null
  %21 = extractvalue { ptr, i32 } %20, 0
  store ptr %21, ptr %3, align 8
  %22 = extractvalue { ptr, i32 } %20, 1
  store i32 %22, ptr %4, align 4
  br label %23

23:                                               ; preds = %19
  %24 = load ptr, ptr %3, align 8
  %25 = call ptr @__cxa_begin_catch(ptr %24) #1
  invoke void @_ZN3nix15ignoreExceptionENS_9VerbosityE(i32 noundef 0)
          to label %26 unwind label %31

26:                                               ; preds = %23
  invoke void @__cxa_end_catch()
          to label %27 unwind label %31

27:                                               ; preds = %26
  br label %28

28:                                               ; preds = %30, %27
  %29 = getelementptr inbounds %"class.nix::RunPager", ptr %5, i32 0, i32 0
  call void @_ZN3nix3PidD1Ev(ptr noundef nonnull align 4 dereferenceable(12) %29) #1
  ret void

30:                                               ; preds = %18, %8
  br label %28

31:                                               ; preds = %26, %23
  %32 = landingpad { ptr, i32 }
          catch ptr null
  %33 = extractvalue { ptr, i32 } %32, 0
  call void @__clang_call_terminate(ptr %33) #20
  unreachable
}