; Function Attrs: mustprogress nounwind uwtable
define void @_ZN3nix8RunPagerD2Ev(ptr noundef nonnull align 4 dereferenceable(16) %0) unnamed_addr #6 align 2 personality ptr @__gxx_personality_v0 {
  %2 = invoke noundef i32 @_ZN3nix3PidcviEv(ptr noundef nonnull align 4 dereferenceable(12) %0)
          to label %3 unwind label %11

3:                                                ; preds = %1
  %.not = icmp eq i32 %2, -1
  br i1 %.not, label %16, label %4

4:                                                ; preds = %3
  %5 = invoke noundef nonnull align 8 dereferenceable(8) ptr @_ZNSo5flushEv(ptr noundef nonnull align 8 dereferenceable(8) @_ZSt4cout)
          to label %6 unwind label %11

6:                                                ; preds = %4
  %7 = getelementptr inbounds i8, ptr %0, i64 12
  %8 = load i32, ptr %7, align 4
  %9 = tail call i32 @dup2(i32 noundef %8, i32 noundef 1) #30
  %10 = invoke noundef i32 @_ZN3nix3Pid4waitEv(ptr noundef nonnull align 4 dereferenceable(12) %0)
          to label %16 unwind label %11

11:                                               ; preds = %6, %4, %1
  %12 = landingpad { ptr, i32 }
          catch ptr null
  %13 = extractvalue { ptr, i32 } %12, 0
  %14 = tail call ptr @__cxa_begin_catch(ptr %13) #30
  invoke void @_ZN3nix15ignoreExceptionENS_9VerbosityE(i32 noundef 0)
          to label %15 unwind label %17

15:                                               ; preds = %11
  invoke void @__cxa_end_catch()
          to label %16 unwind label %17

16:                                               ; preds = %3, %6, %15
  tail call void @_ZN3nix3PidD1Ev(ptr noundef nonnull align 4 dereferenceable(12) %0) #30
  ret void

17:                                               ; preds = %15, %11
  %18 = landingpad { ptr, i32 }
          catch ptr null
  %19 = extractvalue { ptr, i32 } %18, 0
  tail call void @__clang_call_terminate(ptr %19) #34
  unreachable
}